Certificate:
    Data:
        Version: 3 (0x2)
        Serial Number: 4128 (0x1020)
        Signature Algorithm: sha256WithRSAEncryption
        Issuer: C=IT, ST=Italy, L=Pescara, O=Tirasa, OU=ITC, CN=Tirasa/emailAddress=info@tirasa.net
        Validity
            Not Before: Jun 15 12:07:09 2023 GMT
            Not After : Jun 12 12:07:09 2033 GMT
        Subject: C=IT, ST=Italy, O=Tirasa, OU=IAM, CN=localhost
        Subject Public Key Info:
            Public Key Algorithm: rsaEncryption
                Public-Key: (2048 bit)
                Modulus:
                    00:c7:87:c1:56:08:22:1d:a9:4e:0e:f0:2e:cc:bd:
                    60:f1:fc:2a:e9:46:6b:9e:45:e8:a2:8d:05:3c:d1:
                    a5:52:e0:ae:e3:74:5a:9c:3e:19:5b:4a:b0:43:5e:
                    73:8c:7e:71:07:2e:0f:70:2b:60:a0:8b:08:2f:63:
                    21:91:92:b2:68:19:13:30:9d:9d:2c:ff:d7:f3:8a:
                    ff:a6:34:2c:0f:54:ad:e8:54:9a:7a:75:24:e7:71:
                    3a:b0:d9:c8:27:b9:27:9b:8d:1b:af:16:52:f5:5c:
                    a2:7e:85:c8:be:42:ed:f3:3c:5c:20:5e:fd:49:f7:
                    f2:3a:62:2b:a6:b1:40:21:9f:43:2f:e8:1a:9a:48:
                    6b:ad:24:2e:7a:e9:8e:66:f4:c3:82:89:47:62:4a:
                    24:82:0b:aa:13:e7:ae:1f:95:2a:86:2d:80:60:77:
                    0f:4f:a0:17:3a:d5:0f:4e:fa:27:7c:4f:6a:61:f0:
                    a5:b5:63:e0:42:4a:cb:91:fb:fa:93:cb:7d:14:b4:
                    e5:63:93:dd:9e:54:a5:81:6e:06:c0:ac:6b:95:17:
                    6e:45:3f:d5:80:ee:d8:43:98:f7:c0:f5:07:13:fc:
                    f9:f0:5f:20:b8:ca:89:0a:0a:48:27:ac:e0:e1:66:
                    2d:23:bb:23:13:28:78:78:5c:20:60:9c:46:d0:df:
                    7e:cf
                Exponent: 65537 (0x10001)
        X509v3 extensions:
            X509v3 Basic Constraints: 
                CA:FALSE
            Netscape Comment: 
                OpenSSL Generated Certificate
            X509v3 Subject Key Identifier: 
                F7:7C:50:2C:84:08:31:4A:6E:AA:5D:25:0B:6A:7D:02:1C:71:78:93
            X509v3 Authority Key Identifier: 
                3A:A1:78:E9:78:76:95:D8:7A:58:4F:0B:F6:CC:F9:57:4D:D4:05:E9
    Signature Algorithm: sha256WithRSAEncryption
    Signature Value:
        d5:86:ab:5f:05:28:b8:da:ef:30:52:6a:af:f5:42:be:a8:90:
        ca:b0:f5:68:be:b5:5a:fb:a9:ba:f5:d4:31:b5:9f:6a:f5:7e:
        dc:fc:ff:c2:7f:6a:fe:af:0c:64:12:f0:88:11:85:43:10:87:
        72:14:2c:09:91:2d:04:f2:64:12:8d:dc:c2:ba:04:2b:91:a3:
        d9:14:d5:4c:3d:5f:30:a4:21:1f:9c:e4:7c:95:5f:ba:9b:e0:
        01:b6:7a:e1:54:cc:aa:de:70:b5:e3:5f:c2:79:d9:8e:c8:4f:
        3e:db:95:88:19:63:e0:e9:f5:ef:0d:a2:3c:61:8b:f1:24:d0:
        14:a8:c2:e9:02:05:5c:ab:ec:a0:76:d7:e5:e8:da:ea:7c:a3:
        77:34:46:4b:65:e0:d5:d9:2a:fb:19:58:a1:06:65:37:a6:bf:
        93:c4:5e:0e:6f:b9:bd:dc:ec:05:bc:80:1f:1b:9e:f3:1a:4a:
        9e:b7:32:ce:64:29:18:14:bb:bf:43:70:25:86:22:58:b1:5c:
        e8:dd:ee:d1:f9:aa:75:b3:ef:ff:de:e9:d4:c1:ed:2c:5a:25:
        ee:73:10:6d:6e:da:82:fe:01:14:36:d1:58:a9:f1:26:6f:d0:
        d8:d1:54:5c:23:b5:50:5b:08:d8:a9:3e:44:85:c4:b7:88:10:
        09:4c:f9:f0
-----BEGIN CERTIFICATE-----
MIIDxjCCAq6gAwIBAgICECAwDQYJKoZIhvcNAQELBQAwfzELMAkGA1UEBhMCSVQx
DjAMBgNVBAgMBUl0YWx5MRAwDgYDVQQHDAdQZXNjYXJhMQ8wDQYDVQQKDAZUaXJh
c2ExDDAKBgNVBAsMA0lUQzEPMA0GA1UEAwwGVGlyYXNhMR4wHAYJKoZIhvcNAQkB
Fg9pbmZvQHRpcmFzYS5uZXQwHhcNMjMwNjE1MTIwNzA5WhcNMzMwNjEyMTIwNzA5
WjBQMQswCQYDVQQGEwJJVDEOMAwGA1UECAwFSXRhbHkxDzANBgNVBAoMBlRpcmFz
YTEMMAoGA1UECwwDSUFNMRIwEAYDVQQDDAlsb2NhbGhvc3QwggEiMA0GCSqGSIb3
DQEBAQUAA4IBDwAwggEKAoIBAQDHh8FWCCIdqU4O8C7MvWDx/CrpRmueReiijQU8
0aVS4K7jdFqcPhlbSrBDXnOMfnEHLg9wK2CgiwgvYyGRkrJoGRMwnZ0s/9fziv+m
NCwPVK3oVJp6dSTncTqw2cgnuSebjRuvFlL1XKJ+hci+Qu3zPFwgXv1J9/I6Yium
sUAhn0Mv6BqaSGutJC566Y5m9MOCiUdiSiSCC6oT564flSqGLYBgdw9PoBc61Q9O
+id8T2ph8KW1Y+BCSsuR+/qTy30UtOVjk92eVKWBbgbArGuVF25FP9WA7thDmPfA
9QcT/PnwXyC4yokKCkgnrODhZi0juyMTKHh4XCBgnEbQ337PAgMBAAGjezB5MAkG
A1UdEwQCMAAwLAYJYIZIAYb4QgENBB8WHU9wZW5TU0wgR2VuZXJhdGVkIENlcnRp
ZmljYXRlMB0GA1UdDgQWBBT3fFAshAgxSm6qXSULan0CHHF4kzAfBgNVHSMEGDAW
gBQ6oXjpeHaV2HpYTwv2zPlXTdQF6TANBgkqhkiG9w0BAQsFAAOCAQEA1YarXwUo
uNrvMFJqr/VCvqiQyrD1aL61WvupuvXUMbWfavV+3Pz/wn9q/q8MZBLwiBGFQxCH
chQsCZEtBPJkEo3cwroEK5Gj2RTVTD1fMKQhH5zkfJVfupvgAbZ64VTMqt5wteNf
wnnZjshPPtuViBlj4On17w2iPGGL8STQFKjC6QIFXKvsoHbX5eja6nyjdzRGS2Xg
1dkq+xlYoQZlN6a/k8ReDm+5vdzsBbyAHxue8xpKnrcyzmQpGBS7v0NwJYYiWLFc
6N3u0fmqdbPv/97p1MHtLFol7nMQbW7agv4BFDbRWKnxJm/Q2NFUXCO1UFsI2Kk+
RIXEt4gQCUz58A==
-----END CERTIFICATE-----
